; Function Attrs: mustprogress nofree norecurse nosync nounwind willreturn memory(none) uwtable
define signext range(i8 0, 2) i8 @u_isprintPOSIX_77(i32 noundef %0) local_unnamed_addr #0 {
  %2 = icmp ult i32 %0, 55296
  br i1 %2, label %.thread, label %3

3:                                                ; preds = %1
  %4 = icmp ult i32 %0, 65536
  br i1 %4, label %.thread15, label %5

5:                                                ; preds = %3
  %6 = icmp ugt i32 %0, 1114111
  br i1 %6, label %25, label %7

7:                                                ; preds = %5
  %8 = lshr i32 %0, 11
  %9 = zext nneg i32 %8 to i64
  %10 = getelementptr inbounds nuw i16, ptr @_ZL15propsTrie_index, i64 %9
  %11 = getelementptr inbounds nuw i8, ptr %10, i64 4160
  %12 = load i16, ptr %11, align 2, !tbaa !3
  %13 = zext i16 %12 to i32
  %14 = lshr i32 %0, 5
  %15 = and i32 %14, 63
  %16 = add nuw nsw i32 %15, %13
  %17 = zext nneg i32 %16 to i64
  %18 = getelementptr inbounds nuw i16, ptr @_ZL15propsTrie_index, i64 %17
  %19 = load i16, ptr %18, align 2, !tbaa !3
  %20 = zext i16 %19 to i32
  %21 = shl nuw nsw i32 %20, 2
  %22 = and i32 %0, 31
  %23 = add nuw nsw i32 %21, %22
  %24 = zext nneg i32 %23 to i64
  br label %25

25:                                               ; preds = %7, %5
  %26 = phi i64 [ 4876, %5 ], [ %24, %7 ]
  %27 = getelementptr inbounds nuw i16, ptr @_ZL15propsTrie_index, i64 %26
  %28 = load i16, ptr %27, align 2, !tbaa !3
  %29 = and i16 %28, 31
  %30 = icmp eq i16 %29, 12
  br i1 %30, label %92, label %64

.thread15:                                        ; preds = %3
  %31 = icmp samesign ult i32 %0, 56320
  %32 = select i1 %31, i32 320, i32 0
  %33 = lshr i32 %0, 5
  %34 = add nuw nsw i32 %32, %33
  %35 = zext nneg i32 %34 to i64
  %36 = getelementptr inbounds nuw i16, ptr @_ZL15propsTrie_index, i64 %35
  %37 = load i16, ptr %36, align 2, !tbaa !3
  %38 = zext i16 %37 to i32
  %39 = shl nuw nsw i32 %38, 2
  %40 = and i32 %0, 31
  %41 = add nuw nsw i32 %39, %40
  %42 = zext nneg i32 %41 to i64
  %43 = getelementptr inbounds nuw i16, ptr @_ZL15propsTrie_index, i64 %42
  %44 = load i16, ptr %43, align 2, !tbaa !3
  %45 = and i16 %44, 31
  %46 = icmp eq i16 %45, 12
  br i1 %46, label %92, label %.thread16

.thread:                                          ; preds = %1
  %47 = lshr i32 %0, 5
  %48 = zext nneg i32 %47 to i64
  %49 = getelementptr inbounds nuw i16, ptr @_ZL15propsTrie_index, i64 %48
  %50 = load i16, ptr %49, align 2, !tbaa !3
  %51 = zext i16 %50 to i32
  %52 = shl nuw nsw i32 %51, 2
  %53 = and i32 %0, 31
  %54 = add nuw nsw i32 %52, %53
  %55 = zext nneg i32 %54 to i64
  %56 = getelementptr inbounds nuw i16, ptr @_ZL15propsTrie_index, i64 %55
  %57 = load i16, ptr %56, align 2, !tbaa !3
  %58 = and i16 %57, 31
  %59 = icmp eq i16 %58, 12
  br i1 %59, label %92, label %.sink.split.i

.thread16:                                        ; preds = %.thread15
  %60 = icmp samesign ult i32 %0, 56320
  %61 = select i1 %60, i32 320, i32 0
  %62 = lshr i32 %0, 5
  %63 = add nuw nsw i32 %61, %62
  br label %.sink.split.i

64:                                               ; preds = %25
  %65 = icmp ugt i32 %0, 1114111
  br i1 %65, label %u_isgraphPOSIX_77.exit, label %66

66:                                               ; preds = %64
  %67 = lshr i32 %0, 11
  %68 = zext nneg i32 %67 to i64
  %69 = getelementptr inbounds nuw i16, ptr @_ZL15propsTrie_index, i64 %68
  %70 = getelementptr inbounds nuw i8, ptr %69, i64 4160
  %71 = load i16, ptr %70, align 2, !tbaa !3
  %72 = zext i16 %71 to i32
  %73 = lshr i32 %0, 5
  %74 = and i32 %73, 63
  %75 = add nuw nsw i32 %74, %72
  br label %.sink.split.i

.sink.split.i:                                    ; preds = %.thread, %66, %.thread16
  %.sink16.i = phi i32 [ %63, %.thread16 ], [ %75, %66 ], [ %47, %.thread ]
  %76 = zext nneg i32 %.sink16.i to i64
  %77 = getelementptr inbounds nuw i16, ptr @_ZL15propsTrie_index, i64 %76
  %78 = load i16, ptr %77, align 2, !tbaa !3
  %79 = zext i16 %78 to i32
  %80 = shl nuw nsw i32 %79, 2
  %81 = and i32 %0, 31
  %82 = add nuw nsw i32 %80, %81
  %83 = zext nneg i32 %82 to i64
  br label %u_isgraphPOSIX_77.exit

u_isgraphPOSIX_77.exit:                           ; preds = %64, %.sink.split.i
  %84 = phi i64 [ 4876, %64 ], [ %83, %.sink.split.i ]
  %85 = getelementptr inbounds nuw i16, ptr @_ZL15propsTrie_index, i64 %84
  %86 = load i16, ptr %85, align 2, !tbaa !3
  %87 = and i16 %86, 31
  %88 = zext nneg i16 %87 to i32
  %89 = lshr i32 -323586, %88
  %90 = trunc i32 %89 to i8
  %91 = and i8 %90, 1
  br label %92

92:                                               ; preds = %.thread15, %.thread, %u_isgraphPOSIX_77.exit, %25
  %93 = phi i8 [ 1, %25 ], [ %91, %u_isgraphPOSIX_77.exit ], [ 1, %.thread ], [ 1, %.thread15 ]
  ret i8 %93
}